target datalayout = "e-m:e-p270:32:32-p271:32:32-p272:64:64-i64:64-i128:128-f80:128-n8:16:32:64-S128"
target triple = "x86_64-pc-linux-gnu"

%struct.PRNGState = type { [4 x i64] }

@.str = private unnamed_addr constant [5 x i8] c"math\00", align 1
@lj_lib_cf_math = internal constant [8 x ptr] [ptr @lj_ffh_math_abs, ptr @lj_ffh_math_sqrt, ptr @lj_ffh_math_log, ptr @lj_ffh_math_atan2, ptr @lj_ffh_math_ldexp, ptr @lj_ffh_math_min, ptr @lj_cf_math_random, ptr @lj_cf_math_randomseed], align 16

; Function Attrs: alwaysinline nounwind uwtable
define internal void @lj_prng_seed_fixed(ptr noundef %0) #3 {
  %2 = alloca ptr, align 8
  store ptr %0, ptr %2, align 8, !tbaa !9
  %3 = load ptr, ptr %2, align 8, !tbaa !9
  %4 = getelementptr inbounds nuw %struct.PRNGState, ptr %3, i32 0, i32 0
  %5 = getelementptr inbounds [4 x i64], ptr %4, i64 0, i64 0
  store i64 -6858288066814780532, ptr %5, align 8, !tbaa !11
  %6 = load ptr, ptr %2, align 8, !tbaa !9
  %7 = getelementptr inbounds nuw %struct.PRNGState, ptr %6, i32 0, i32 0
  %8 = getelementptr inbounds [4 x i64], ptr %7, i64 0, i64 1
  store i64 8523670790150465103, ptr %8, align 8, !tbaa !11
  %9 = load ptr, ptr %2, align 8, !tbaa !9
  %10 = getelementptr inbounds nuw %struct.PRNGState, ptr %9, i32 0, i32 0
  %11 = getelementptr inbounds [4 x i64], ptr %10, i64 0, i64 2
  store i64 5846242980159741610, ptr %11, align 8, !tbaa !11
  %12 = load ptr, ptr %2, align 8, !tbaa !9
  %13 = getelementptr inbounds nuw %struct.PRNGState, ptr %12, i32 0, i32 0
  %14 = getelementptr inbounds [4 x i64], ptr %13, i64 0, i64 3
  store i64 3037422542655043879, ptr %14, align 8, !tbaa !11
  ret void
}

; Function Attrs: nounwind uwtable
define dso_local i32 @luaopen_math(ptr noundef %0) #0 {
  %2 = alloca ptr, align 8
  %3 = alloca ptr, align 8
  store ptr %0, ptr %2, align 8, !tbaa !4
  call void @llvm.lifetime.start.p0(i64 8, ptr %3) #7
  %4 = load ptr, ptr %2, align 8, !tbaa !4
  %5 = call ptr @lua_newuserdata(ptr noundef %4, i64 noundef 32)
  store ptr %5, ptr %3, align 8, !tbaa !9
  %6 = load ptr, ptr %3, align 8, !tbaa !9
  call void @lj_prng_seed_fixed(ptr noundef %6)
  %7 = load ptr, ptr %2, align 8, !tbaa !4
  call void @lj_lib_register(ptr noundef %7, ptr noundef @.str, ptr noundef @lj_lib_init_math, ptr noundef @lj_lib_cf_math)
  call void @llvm.lifetime.end.p0(i64 8, ptr %3) #7
  ret i32 1
}