; Function Attrs: nounwind uwtable
define dso_local noundef i32 @luaopen_math(ptr noundef %0) local_unnamed_addr #0 {
  %2 = tail call ptr @lua_newuserdata(ptr noundef %0, i64 noundef 32) #5
  store i64 -6858288066814780532, ptr %2, align 8, !tbaa !4
  %3 = getelementptr inbounds nuw i8, ptr %2, i64 8
  store i64 8523670790150465103, ptr %3, align 8, !tbaa !4
  %4 = getelementptr inbounds nuw i8, ptr %2, i64 16
  store i64 5846242980159741610, ptr %4, align 8, !tbaa !4
  %5 = getelementptr inbounds nuw i8, ptr %2, i64 24
  store i64 3037422542655043879, ptr %5, align 8, !tbaa !4
  tail call void @lj_lib_register(ptr noundef %0, ptr noundef nonnull @.str, ptr noundef nonnull @lj_lib_init_math, ptr noundef nonnull @lj_lib_cf_math) #5
  ret i32 1
}